; Function Attrs: mustprogress nofree norecurse nosync nounwind willreturn memory(argmem: readwrite) uwtable
define internal noundef i32 @zueci_iso8859_7_u(ptr nocapture noundef readonly %0, i32 %1, i32 noundef %2, ptr nocapture noundef writeonly %3) #6 {
  %5 = load i8, ptr %0, align 1
  %6 = zext i8 %5 to i32
  %7 = icmp ult i8 %5, -96
  br i1 %7, label %8, label %11

8:                                                ; preds = %4
  %9 = icmp slt i8 %5, 0
  %10 = and i32 %2, 1
  %.not25.i = icmp eq i32 %10, 0
  %or.cond.i = and i1 %.not25.i, %9
  br i1 %or.cond.i, label %zueci_iso8859_u.exit, label %.sink.split.i

11:                                               ; preds = %4
  %12 = add nsw i8 %5, 96
  %13 = zext nneg i8 %12 to i32
  %14 = lshr i32 %13, 4
  %15 = zext nneg i32 %14 to i64
  %16 = getelementptr inbounds i16, ptr @zueci_iso8859_7_s, i64 %15
  %17 = load i16, ptr %16, align 2
  %18 = zext i16 %17 to i32
  %19 = and i32 %13, 15
  %20 = shl nuw nsw i32 1, %19
  %21 = and i32 %20, %18
  %.not.i = icmp eq i32 %21, 0
  br i1 %.not.i, label %22, label %.sink.split.i

22:                                               ; preds = %11
  %23 = icmp ult i8 %12, 95
  br i1 %23, label %24, label %33

24:                                               ; preds = %22
  %25 = zext nneg i8 %12 to i64
  %26 = getelementptr inbounds i8, ptr @zueci_iso8859_7_sb_u, i64 %25
  %27 = load i8, ptr %26, align 1
  %.not23.i = icmp eq i8 %27, -1
  br i1 %.not23.i, label %33, label %28

28:                                               ; preds = %24
  %29 = sext i8 %27 to i64
  %30 = getelementptr inbounds i16, ptr @zueci_iso8859_7_u_u, i64 %29
  %31 = load i16, ptr %30, align 2
  %32 = zext i16 %31 to i32
  br label %.sink.split.i

33:                                               ; preds = %24, %22
  %34 = and i32 %2, 1
  %.not24.i = icmp eq i32 %34, 0
  br i1 %.not24.i, label %zueci_iso8859_u.exit, label %.sink.split.i

.sink.split.i:                                    ; preds = %33, %28, %11, %8
  %.sink.i = phi i32 [ %32, %28 ], [ %6, %8 ], [ %6, %11 ], [ %6, %33 ]
  store i32 %.sink.i, ptr %3, align 4
  br label %zueci_iso8859_u.exit

zueci_iso8859_u.exit:                             ; preds = %8, %33, %.sink.split.i
  %.0.i = phi i32 [ 0, %8 ], [ 0, %33 ], [ 1, %.sink.split.i ]
  ret i32 %.0.i
}